target datalayout = "e-m:e-p270:32:32-p271:32:32-p272:64:64-i64:64-i128:128-f80:128-n8:16:32:64-S128"
target triple = "x86_64-pc-linux-gnu"

@.str.20 = private unnamed_addr constant [80 x i8] c"MinTLABSize (%lu) must be greater than or equal to reserved area in TLAB (%lu)\0A\00", align 1
@.str.21 = private unnamed_addr constant [78 x i8] c"MinTLABSize (%lu) must be less than or equal to ergonomic TLAB maximum (%lu)\0A\00", align 1
@MinObjAlignment = external global i32, align 4
@_ZN22ThreadLocalAllocBuffer9_max_sizeE = external global i64, align 8

; Function Attrs: mustprogress nounwind uwtable
define linkonce_odr hidden noundef i64 @_Z10align_downImiTnNSt9enable_ifIXcvbsr3std11is_integralIT_EE5valueEiE4typeELi0EES1_S1_T0_(i64 noundef %0, i32 noundef %1) #1 comdat {
  %3 = alloca i64, align 8
  %4 = alloca i32, align 4
  %5 = alloca i64, align 8
  store i64 %0, ptr %3, align 8
  store i32 %1, ptr %4, align 4
  %6 = load i64, ptr %3, align 8
  %7 = load i32, ptr %4, align 4
  %8 = call noundef i32 @_ZL14alignment_maskIiTnNSt9enable_ifIXcvbsr3std11is_integralIT_EE5valueEiE4typeELi0EES1_S1_(i32 noundef %7)
  %9 = sext i32 %8 to i64
  %10 = xor i64 %9, -1
  %11 = and i64 %6, %10
  store i64 %11, ptr %5, align 8
  %12 = load i64, ptr %5, align 8
  ret i64 %12
}

; Function Attrs: mustprogress nounwind uwtable
define linkonce_odr hidden noundef i64 @_Z12checked_castImmET_T0_(i64 noundef %0) #1 comdat {
  %2 = alloca i64, align 8
  %3 = alloca i64, align 8
  store i64 %0, ptr %2, align 8
  %4 = load i64, ptr %2, align 8
  store i64 %4, ptr %3, align 8
  %5 = load i64, ptr %3, align 8
  ret i64 %5
}

; Function Attrs: mustprogress nounwind uwtable
define internal noundef i32 @_ZL14alignment_maskIiTnNSt9enable_ifIXcvbsr3std11is_integralIT_EE5valueEiE4typeELi0EES1_S1_(i32 noundef %0) #1 {
  %2 = alloca i32, align 4
  store i32 %0, ptr %2, align 4
  %3 = load i32, ptr %2, align 4
  %4 = sub nsw i32 %3, 1
  ret i32 %4
}

; Function Attrs: mustprogress nounwind uwtable
define linkonce_odr hidden noundef i64 @_Z8align_upImiTnNSt9enable_ifIXcvbsr3std11is_integralIT_EE5valueEiE4typeELi0EES1_S1_T0_(i64 noundef %0, i32 noundef %1) #1 comdat {
  %3 = alloca i64, align 8
  %4 = alloca i32, align 4
  %5 = alloca i64, align 8
  store i64 %0, ptr %3, align 8
  store i32 %1, ptr %4, align 4
  %6 = load i64, ptr %3, align 8
  %7 = load i32, ptr %4, align 4
  %8 = call noundef i32 @_ZL14alignment_maskIiTnNSt9enable_ifIXcvbsr3std11is_integralIT_EE5valueEiE4typeELi0EES1_S1_(i32 noundef %7)
  %9 = sext i32 %8 to i64
  %10 = add i64 %6, %9
  %11 = call noundef i64 @_Z12checked_castImmET_T0_(i64 noundef %10)
  store i64 %11, ptr %5, align 8
  %12 = load i64, ptr %5, align 8
  %13 = load i32, ptr %4, align 4
  %14 = call noundef i64 @_Z10align_downImiTnNSt9enable_ifIXcvbsr3std11is_integralIT_EE5valueEiE4typeELi0EES1_S1_T0_(i64 noundef %12, i32 noundef %13)
  ret i64 %14
}

; Function Attrs: mustprogress nounwind uwtable
define linkonce_odr hidden noundef i64 @_Z17align_object_sizeImET_S0_(i64 noundef %0) #1 comdat {
  %2 = alloca i64, align 8
  store i64 %0, ptr %2, align 8
  %3 = load i64, ptr %2, align 8
  %4 = load i32, ptr @MinObjAlignment, align 4
  %5 = call noundef i64 @_Z8align_upImiTnNSt9enable_ifIXcvbsr3std11is_integralIT_EE5valueEiE4typeELi0EES1_S1_T0_(i64 noundef %3, i32 noundef %4)
  ret i64 %5
}

; Function Attrs: mustprogress nounwind uwtable
define linkonce_odr hidden noundef i64 @_ZN22ThreadLocalAllocBuffer17alignment_reserveEv() #1 comdat align 2 {
  %1 = call noundef i64 @_ZN22ThreadLocalAllocBuffer11end_reserveEv()
  %2 = call noundef i64 @_Z17align_object_sizeImET_S0_(i64 noundef %1)
  ret i64 %2
}

; Function Attrs: mustprogress nounwind uwtable
define linkonce_odr hidden noundef i64 @_ZN22ThreadLocalAllocBuffer8max_sizeEv() #1 comdat align 2 {
  %1 = load i64, ptr @_ZN22ThreadLocalAllocBuffer9_max_sizeE, align 8
  ret i64 %1
}

; Function Attrs: mustprogress nounwind uwtable
define linkonce_odr hidden noundef i64 @_ZN22ThreadLocalAllocBuffer26alignment_reserve_in_bytesEv() #1 comdat align 2 {
  %1 = call noundef i64 @_ZN22ThreadLocalAllocBuffer17alignment_reserveEv()
  %2 = mul i64 %1, 8
  ret i64 %2
}

; Function Attrs: mustprogress nounwind uwtable
define hidden noundef i32 @_Z25MinTLABSizeConstraintFuncmb(i64 noundef %0, i1 noundef zeroext %1) #1 {
  %3 = alloca i32, align 4
  %4 = alloca i64, align 8
  %5 = alloca i8, align 1
  store i64 %0, ptr %4, align 8
  %6 = zext i1 %1 to i8
  store i8 %6, ptr %5, align 1
  %7 = load i64, ptr %4, align 8
  %8 = call noundef i64 @_ZN22ThreadLocalAllocBuffer26alignment_reserve_in_bytesEv()
  %9 = icmp ult i64 %7, %8
  br i1 %9, label %10, label %15

10:                                               ; preds = %2
  %11 = load i8, ptr %5, align 1
  %12 = trunc i8 %11 to i1
  %13 = load i64, ptr %4, align 8
  %14 = call noundef i64 @_ZN22ThreadLocalAllocBuffer26alignment_reserve_in_bytesEv()
  call void (i1, ptr, ...) @_ZN7JVMFlag10printErrorEbPKcz(i1 noundef zeroext %12, ptr noundef @.str.20, i64 noundef %13, i64 noundef %14)
  store i32 6, ptr %3, align 4
  br label %27

15:                                               ; preds = %2
  %16 = load i64, ptr %4, align 8
  %17 = call noundef i64 @_ZN22ThreadLocalAllocBuffer8max_sizeEv()
  %18 = mul i64 %17, 8
  %19 = icmp ugt i64 %16, %18
  br i1 %19, label %20, label %26

20:                                               ; preds = %15
  %21 = load i8, ptr %5, align 1
  %22 = trunc i8 %21 to i1
  %23 = load i64, ptr %4, align 8
  %24 = call noundef i64 @_ZN22ThreadLocalAllocBuffer8max_sizeEv()
  %25 = mul i64 %24, 8
  call void (i1, ptr, ...) @_ZN7JVMFlag10printErrorEbPKcz(i1 noundef zeroext %22, ptr noundef @.str.21, i64 noundef %23, i64 noundef %25)
  store i32 6, ptr %3, align 4
  br label %27

26:                                               ; preds = %15
  store i32 0, ptr %3, align 4
  br label %27

27:                                               ; preds = %26, %20, %10
  %28 = load i32, ptr %3, align 4
  ret i32 %28
}