; Function Attrs: mustprogress nounwind uwtable
define hidden noundef range(i32 0, 7) i32 @_Z25MinTLABSizeConstraintFuncmb(i64 noundef %0, i1 noundef zeroext %1) local_unnamed_addr #0 {
  %3 = tail call noundef i64 @_ZN22ThreadLocalAllocBuffer11end_reserveEv() #4
  %4 = load i32, ptr @MinObjAlignment, align 4
  %5 = add nsw i32 %4, -1
  %6 = sext i32 %5 to i64
  %7 = add i64 %3, %6
  %8 = sub i32 0, %4
  %9 = sext i32 %8 to i64
  %10 = and i64 %7, %9
  %11 = shl i64 %10, 3
  %12 = icmp ugt i64 %11, %0
  br i1 %12, label %13, label %23

13:                                               ; preds = %2
  %14 = tail call noundef i64 @_ZN22ThreadLocalAllocBuffer11end_reserveEv() #4
  %15 = load i32, ptr @MinObjAlignment, align 4
  %16 = add nsw i32 %15, -1
  %17 = sext i32 %16 to i64
  %18 = add i64 %14, %17
  %19 = sub i32 0, %15
  %20 = sext i32 %19 to i64
  %21 = and i64 %18, %20
  %22 = shl i64 %21, 3
  tail call void (i1, ptr, ...) @_ZN7JVMFlag10printErrorEbPKcz(i1 noundef zeroext %1, ptr noundef nonnull @.str.20, i64 noundef %0, i64 noundef %22) #4
  br label %28

23:                                               ; preds = %2
  %24 = load i64, ptr @_ZN22ThreadLocalAllocBuffer9_max_sizeE, align 8
  %25 = shl i64 %24, 3
  %26 = icmp ult i64 %25, %0
  br i1 %26, label %27, label %28

27:                                               ; preds = %23
  tail call void (i1, ptr, ...) @_ZN7JVMFlag10printErrorEbPKcz(i1 noundef zeroext %1, ptr noundef nonnull @.str.21, i64 noundef %0, i64 noundef %25) #4
  br label %28

28:                                               ; preds = %23, %27, %13
  %.0 = phi i32 [ 6, %13 ], [ 6, %27 ], [ 0, %23 ]
  ret i32 %.0
}